; Function Attrs: mustprogress uwtable
define void @_ZN20colvar_grid_gradientC2ERSt6vectorIP6colvarSaIS2_EE(ptr noundef nonnull align 8 dereferenceable(728) %0, ptr noundef nonnull align 8 dereferenceable(24) %1) unnamed_addr #3 align 2 {
  %3 = alloca double, align 8
  call void @llvm.lifetime.start.p0(i64 8, ptr nonnull %3) #26
  store double 0.000000e+00, ptr %3, align 8, !tbaa !90
  %4 = getelementptr inbounds nuw i8, ptr %1, i64 8
  %5 = load ptr, ptr %4, align 8, !tbaa !128
  %6 = load ptr, ptr %1, align 8, !tbaa !101
  %7 = ptrtoint ptr %5 to i64
  %8 = ptrtoint ptr %6 to i64
  %9 = sub i64 %7, %8
  %10 = ashr exact i64 %9, 3
  call void @_ZN11colvar_gridIdEC2ERKSt6vectorIP6colvarSaIS3_EERKdmb(ptr noundef nonnull align 8 dereferenceable(698) %0, ptr noundef nonnull align 8 dereferenceable(24) %1, ptr noundef nonnull align 8 dereferenceable(8) %3, i64 noundef %10, i1 noundef zeroext false)
  call void @llvm.lifetime.end.p0(i64 8, ptr nonnull %3) #26
  store ptr getelementptr inbounds nuw inrange(-16, 88) (i8, ptr @_ZTV20colvar_grid_gradient, i64 16), ptr %0, align 8, !tbaa !93
  %11 = getelementptr inbounds nuw i8, ptr %0, i64 704
  call void @llvm.memset.p0.i64(ptr noundef nonnull align 8 dereferenceable(24) %11, i8 0, i64 24, i1 false)
  ret void
}